target datalayout = "e-m:e-p270:32:32-p271:32:32-p272:64:64-i64:64-i128:128-f80:128-n8:16:32:64-S128"
target triple = "x86_64-pc-linux-gnu"

%struct.UConverterToUnicodeArgs = type { i16, i8, ptr, ptr, ptr, ptr, ptr, ptr }
%struct.UConverter = type { ptr, ptr, ptr, ptr, ptr, ptr, ptr, i32, i8, i8, i8, i8, i8, [7 x i8], i32, i32, i32, i32, i8, i8, i8, i8, i8, i8, i8, i8, [8 x i8], [32 x i8], [2 x i16], [2 x i16], [32 x i16], i32, [19 x i16], [31 x i8], i8, i8, i8, i32 }

; Function Attrs: inlinehint mustprogress nounwind uwtable
define internal noundef signext i8 @_ZL9U_SUCCESS10UErrorCode(i32 noundef %0) #4 {
  %2 = alloca i32, align 4
  store i32 %0, ptr %2, align 4, !tbaa !33
  %3 = load i32, ptr %2, align 4, !tbaa !33
  %4 = icmp sle i32 %3, 0
  %5 = zext i1 %4 to i8
  ret i8 %5
}

; Function Attrs: mustprogress uwtable
define internal void @_ZL31T_UConverter_toUnicode_UTF32_BEP23UConverterToUnicodeArgsP10UErrorCode(ptr noundef %0, ptr noundef %1) #0 {
  %3 = alloca ptr, align 8
  %4 = alloca ptr, align 8
  %5 = alloca ptr, align 8
  %6 = alloca ptr, align 8
  %7 = alloca ptr, align 8
  %8 = alloca ptr, align 8
  %9 = alloca ptr, align 8
  %10 = alloca i32, align 4
  %11 = alloca i32, align 4
  store ptr %0, ptr %3, align 8, !tbaa !3
  store ptr %1, ptr %4, align 8, !tbaa !3
  call void @llvm.lifetime.start.p0(i64 8, ptr %5) #6
  %12 = load ptr, ptr %3, align 8, !tbaa !3
  %13 = getelementptr inbounds nuw %struct.UConverterToUnicodeArgs, ptr %12, i32 0, i32 3
  %14 = load ptr, ptr %13, align 8, !tbaa !7
  store ptr %14, ptr %5, align 8, !tbaa !14
  call void @llvm.lifetime.start.p0(i64 8, ptr %6) #6
  %15 = load ptr, ptr %3, align 8, !tbaa !3
  %16 = getelementptr inbounds nuw %struct.UConverterToUnicodeArgs, ptr %15, i32 0, i32 5
  %17 = load ptr, ptr %16, align 8, !tbaa !15
  store ptr %17, ptr %6, align 8, !tbaa !16
  call void @llvm.lifetime.start.p0(i64 8, ptr %7) #6
  %18 = load ptr, ptr %3, align 8, !tbaa !3
  %19 = getelementptr inbounds nuw %struct.UConverterToUnicodeArgs, ptr %18, i32 0, i32 4
  %20 = load ptr, ptr %19, align 8, !tbaa !17
  store ptr %20, ptr %7, align 8, !tbaa !14
  call void @llvm.lifetime.start.p0(i64 8, ptr %8) #6
  %21 = load ptr, ptr %3, align 8, !tbaa !3
  %22 = getelementptr inbounds nuw %struct.UConverterToUnicodeArgs, ptr %21, i32 0, i32 6
  %23 = load ptr, ptr %22, align 8, !tbaa !18
  store ptr %23, ptr %8, align 8, !tbaa !16
  call void @llvm.lifetime.start.p0(i64 8, ptr %9) #6
  %24 = load ptr, ptr %3, align 8, !tbaa !3
  %25 = getelementptr inbounds nuw %struct.UConverterToUnicodeArgs, ptr %24, i32 0, i32 2
  %26 = load ptr, ptr %25, align 8, !tbaa !19
  %27 = getelementptr inbounds nuw %struct.UConverter, ptr %26, i32 0, i32 13
  %28 = getelementptr inbounds [7 x i8], ptr %27, i64 0, i64 0
  store ptr %28, ptr %9, align 8, !tbaa !14
  call void @llvm.lifetime.start.p0(i64 4, ptr %10) #6
  call void @llvm.lifetime.start.p0(i64 4, ptr %11) #6
  %29 = load ptr, ptr %3, align 8, !tbaa !3
  %30 = getelementptr inbounds nuw %struct.UConverterToUnicodeArgs, ptr %29, i32 0, i32 2
  %31 = load ptr, ptr %30, align 8, !tbaa !19
  %32 = getelementptr inbounds nuw %struct.UConverter, ptr %31, i32 0, i32 12
  %33 = load i8, ptr %32, align 8, !tbaa !20
  %34 = sext i8 %33 to i32
  %35 = icmp sgt i32 %34, 0
  br i1 %35, label %36, label %61

36:                                               ; preds = %2
  %37 = load ptr, ptr %6, align 8, !tbaa !16
  %38 = load ptr, ptr %8, align 8, !tbaa !16
  %39 = icmp ult ptr %37, %38
  br i1 %39, label %40, label %61

40:                                               ; preds = %36
  %41 = load ptr, ptr %3, align 8, !tbaa !3
  %42 = getelementptr inbounds nuw %struct.UConverterToUnicodeArgs, ptr %41, i32 0, i32 2
  %43 = load ptr, ptr %42, align 8, !tbaa !19
  %44 = getelementptr inbounds nuw %struct.UConverter, ptr %43, i32 0, i32 12
  %45 = load i8, ptr %44, align 8, !tbaa !20
  %46 = sext i8 %45 to i32
  store i32 %46, ptr %11, align 4, !tbaa !25
  %47 = load ptr, ptr %3, align 8, !tbaa !3
  %48 = getelementptr inbounds nuw %struct.UConverterToUnicodeArgs, ptr %47, i32 0, i32 2
  %49 = load ptr, ptr %48, align 8, !tbaa !19
  %50 = getelementptr inbounds nuw %struct.UConverter, ptr %49, i32 0, i32 12
  store i8 0, ptr %50, align 8, !tbaa !20
  %51 = load ptr, ptr %3, align 8, !tbaa !3
  %52 = getelementptr inbounds nuw %struct.UConverterToUnicodeArgs, ptr %51, i32 0, i32 2
  %53 = load ptr, ptr %52, align 8, !tbaa !19
  %54 = getelementptr inbounds nuw %struct.UConverter, ptr %53, i32 0, i32 14
  %55 = load i32, ptr %54, align 8, !tbaa !26
  %56 = sub i32 %55, 1
  store i32 %56, ptr %10, align 4, !tbaa !25
  %57 = load ptr, ptr %3, align 8, !tbaa !3
  %58 = getelementptr inbounds nuw %struct.UConverterToUnicodeArgs, ptr %57, i32 0, i32 2
  %59 = load ptr, ptr %58, align 8, !tbaa !19
  %60 = getelementptr inbounds nuw %struct.UConverter, ptr %59, i32 0, i32 14
  store i32 0, ptr %60, align 8, !tbaa !26
  br label %73

61:                                               ; preds = %36, %2
  br label %62

62:                                               ; preds = %169, %61
  %63 = load ptr, ptr %5, align 8, !tbaa !14
  %64 = load ptr, ptr %7, align 8, !tbaa !14
  %65 = icmp ult ptr %63, %64
  br i1 %65, label %66, label %70

66:                                               ; preds = %62
  %67 = load ptr, ptr %6, align 8, !tbaa !16
  %68 = load ptr, ptr %8, align 8, !tbaa !16
  %69 = icmp ult ptr %67, %68
  br label %70

70:                                               ; preds = %66, %62
  %71 = phi i1 [ false, %62 ], [ %69, %66 ]
  br i1 %71, label %72, label %170

72:                                               ; preds = %70
  store i32 0, ptr %11, align 4, !tbaa !25
  store i32 0, ptr %10, align 4, !tbaa !25
  br label %73

73:                                               ; preds = %72, %40
  br label %74

74:                                               ; preds = %110, %73
  %75 = load i32, ptr %11, align 4, !tbaa !25
  %76 = zext i32 %75 to i64
  %77 = icmp ult i64 %76, 4
  br i1 %77, label %78, label %111

78:                                               ; preds = %74
  %79 = load ptr, ptr %5, align 8, !tbaa !14
  %80 = load ptr, ptr %7, align 8, !tbaa !14
  %81 = icmp ult ptr %79, %80
  br i1 %81, label %82, label %97

82:                                               ; preds = %78
  %83 = load i32, ptr %10, align 4, !tbaa !25
  %84 = shl i32 %83, 8
  %85 = load ptr, ptr %5, align 8, !tbaa !14
  %86 = load i8, ptr %85, align 1, !tbaa !27
  %87 = zext i8 %86 to i32
  %88 = or i32 %84, %87
  store i32 %88, ptr %10, align 4, !tbaa !25
  %89 = load ptr, ptr %5, align 8, !tbaa !14
  %90 = getelementptr inbounds nuw i8, ptr %89, i32 1
  store ptr %90, ptr %5, align 8, !tbaa !14
  %91 = load i8, ptr %89, align 1, !tbaa !27
  %92 = load ptr, ptr %9, align 8, !tbaa !14
  %93 = load i32, ptr %11, align 4, !tbaa !25
  %94 = add i32 %93, 1
  store i32 %94, ptr %11, align 4, !tbaa !25
  %95 = zext i32 %93 to i64
  %96 = getelementptr inbounds nuw i8, ptr %92, i64 %95
  store i8 %91, ptr %96, align 1, !tbaa !27
  br label %110

97:                                               ; preds = %78
  %98 = load i32, ptr %10, align 4, !tbaa !25
  %99 = add i32 %98, 1
  %100 = load ptr, ptr %3, align 8, !tbaa !3
  %101 = getelementptr inbounds nuw %struct.UConverterToUnicodeArgs, ptr %100, i32 0, i32 2
  %102 = load ptr, ptr %101, align 8, !tbaa !19
  %103 = getelementptr inbounds nuw %struct.UConverter, ptr %102, i32 0, i32 14
  store i32 %99, ptr %103, align 8, !tbaa !26
  %104 = load i32, ptr %11, align 4, !tbaa !25
  %105 = trunc i32 %104 to i8
  %106 = load ptr, ptr %3, align 8, !tbaa !3
  %107 = getelementptr inbounds nuw %struct.UConverterToUnicodeArgs, ptr %106, i32 0, i32 2
  %108 = load ptr, ptr %107, align 8, !tbaa !19
  %109 = getelementptr inbounds nuw %struct.UConverter, ptr %108, i32 0, i32 12
  store i8 %105, ptr %109, align 8, !tbaa !20
  br label %171

110:                                              ; preds = %82
  br label %74, !llvm.loop !28

111:                                              ; preds = %74
  %112 = load i32, ptr %10, align 4, !tbaa !25
  %113 = icmp ule i32 %112, 1114111
  br i1 %113, label %114, label %161

114:                                              ; preds = %111
  %115 = load i32, ptr %10, align 4, !tbaa !25
  %116 = and i32 %115, -2048
  %117 = icmp eq i32 %116, 55296
  br i1 %117, label %161, label %118

118:                                              ; preds = %114
  %119 = load i32, ptr %10, align 4, !tbaa !25
  %120 = icmp ule i32 %119, 65535
  br i1 %120, label %121, label %126

121:                                              ; preds = %118
  %122 = load i32, ptr %10, align 4, !tbaa !25
  %123 = trunc i32 %122 to i16
  %124 = load ptr, ptr %6, align 8, !tbaa !16
  %125 = getelementptr inbounds nuw i16, ptr %124, i32 1
  store ptr %125, ptr %6, align 8, !tbaa !16
  store i16 %123, ptr %124, align 2, !tbaa !30
  br label %160

126:                                              ; preds = %118
  %127 = load i32, ptr %10, align 4, !tbaa !25
  %128 = lshr i32 %127, 10
  %129 = add i32 %128, 55232
  %130 = trunc i32 %129 to i16
  %131 = load ptr, ptr %6, align 8, !tbaa !16
  %132 = getelementptr inbounds nuw i16, ptr %131, i32 1
  store ptr %132, ptr %6, align 8, !tbaa !16
  store i16 %130, ptr %131, align 2, !tbaa !30
  %133 = load i32, ptr %10, align 4, !tbaa !25
  %134 = and i32 %133, 1023
  %135 = or i32 %134, 56320
  %136 = trunc i32 %135 to i16
  %137 = zext i16 %136 to i32
  store i32 %137, ptr %10, align 4, !tbaa !25
  %138 = load ptr, ptr %6, align 8, !tbaa !16
  %139 = load ptr, ptr %8, align 8, !tbaa !16
  %140 = icmp ult ptr %138, %139
  br i1 %140, label %141, label %146

141:                                              ; preds = %126
  %142 = load i32, ptr %10, align 4, !tbaa !25
  %143 = trunc i32 %142 to i16
  %144 = load ptr, ptr %6, align 8, !tbaa !16
  %145 = getelementptr inbounds nuw i16, ptr %144, i32 1
  store ptr %145, ptr %6, align 8, !tbaa !16
  store i16 %143, ptr %144, align 2, !tbaa !30
  br label %159

146:                                              ; preds = %126
  %147 = load i32, ptr %10, align 4, !tbaa !25
  %148 = trunc i32 %147 to i16
  %149 = load ptr, ptr %3, align 8, !tbaa !3
  %150 = getelementptr inbounds nuw %struct.UConverterToUnicodeArgs, ptr %149, i32 0, i32 2
  %151 = load ptr, ptr %150, align 8, !tbaa !19
  %152 = getelementptr inbounds nuw %struct.UConverter, ptr %151, i32 0, i32 30
  %153 = getelementptr inbounds [32 x i16], ptr %152, i64 0, i64 0
  store i16 %148, ptr %153, align 8, !tbaa !30
  %154 = load ptr, ptr %3, align 8, !tbaa !3
  %155 = getelementptr inbounds nuw %struct.UConverterToUnicodeArgs, ptr %154, i32 0, i32 2
  %156 = load ptr, ptr %155, align 8, !tbaa !19
  %157 = getelementptr inbounds nuw %struct.UConverter, ptr %156, i32 0, i32 23
  store i8 1, ptr %157, align 1, !tbaa !32
  %158 = load ptr, ptr %4, align 8, !tbaa !3
  store i32 15, ptr %158, align 4, !tbaa !33
  br label %170

159:                                              ; preds = %141
  br label %160

160:                                              ; preds = %159, %121
  br label %169

161:                                              ; preds = %114, %111
  %162 = load i32, ptr %11, align 4, !tbaa !25
  %163 = trunc i32 %162 to i8
  %164 = load ptr, ptr %3, align 8, !tbaa !3
  %165 = getelementptr inbounds nuw %struct.UConverterToUnicodeArgs, ptr %164, i32 0, i32 2
  %166 = load ptr, ptr %165, align 8, !tbaa !19
  %167 = getelementptr inbounds nuw %struct.UConverter, ptr %166, i32 0, i32 12
  store i8 %163, ptr %167, align 8, !tbaa !20
  %168 = load ptr, ptr %4, align 8, !tbaa !3
  store i32 12, ptr %168, align 4, !tbaa !33
  br label %170

169:                                              ; preds = %160
  br label %62, !llvm.loop !35

170:                                              ; preds = %161, %146, %70
  br label %171

171:                                              ; preds = %170, %97
  %172 = load ptr, ptr %5, align 8, !tbaa !14
  %173 = load ptr, ptr %7, align 8, !tbaa !14
  %174 = icmp ult ptr %172, %173
  br i1 %174, label %175, label %186

175:                                              ; preds = %171
  %176 = load ptr, ptr %6, align 8, !tbaa !16
  %177 = load ptr, ptr %8, align 8, !tbaa !16
  %178 = icmp uge ptr %176, %177
  br i1 %178, label %179, label %186

179:                                              ; preds = %175
  %180 = load ptr, ptr %4, align 8, !tbaa !3
  %181 = load i32, ptr %180, align 4, !tbaa !33
  %182 = call noundef signext i8 @_ZL9U_SUCCESS10UErrorCode(i32 noundef %181)
  %183 = icmp ne i8 %182, 0
  br i1 %183, label %184, label %186

184:                                              ; preds = %179
  %185 = load ptr, ptr %4, align 8, !tbaa !3
  store i32 15, ptr %185, align 4, !tbaa !33
  br label %186

186:                                              ; preds = %184, %179, %175, %171
  %187 = load ptr, ptr %6, align 8, !tbaa !16
  %188 = load ptr, ptr %3, align 8, !tbaa !3
  %189 = getelementptr inbounds nuw %struct.UConverterToUnicodeArgs, ptr %188, i32 0, i32 5
  store ptr %187, ptr %189, align 8, !tbaa !15
  %190 = load ptr, ptr %5, align 8, !tbaa !14
  %191 = load ptr, ptr %3, align 8, !tbaa !3
  %192 = getelementptr inbounds nuw %struct.UConverterToUnicodeArgs, ptr %191, i32 0, i32 3
  store ptr %190, ptr %192, align 8, !tbaa !7
  call void @llvm.lifetime.end.p0(i64 4, ptr %11) #6
  call void @llvm.lifetime.end.p0(i64 4, ptr %10) #6
  call void @llvm.lifetime.end.p0(i64 8, ptr %9) #6
  call void @llvm.lifetime.end.p0(i64 8, ptr %8) #6
  call void @llvm.lifetime.end.p0(i64 8, ptr %7) #6
  call void @llvm.lifetime.end.p0(i64 8, ptr %6) #6
  call void @llvm.lifetime.end.p0(i64 8, ptr %5) #6
  ret void
}