; Function Attrs: mustprogress nofree norecurse nosync nounwind memory(readwrite, inaccessiblemem: none) uwtable
define internal void @_ZL31T_UConverter_toUnicode_UTF32_BEP23UConverterToUnicodeArgsP10UErrorCode(ptr noundef captures(none) %0, ptr noundef captures(none) %1) #0 {
  %3 = getelementptr inbounds nuw i8, ptr %0, i64 16
  %4 = load ptr, ptr %3, align 8, !tbaa !3
  %5 = getelementptr inbounds nuw i8, ptr %0, i64 32
  %6 = load ptr, ptr %5, align 8, !tbaa !13
  %7 = getelementptr inbounds nuw i8, ptr %0, i64 24
  %8 = load ptr, ptr %7, align 8, !tbaa !14
  %9 = getelementptr inbounds nuw i8, ptr %0, i64 40
  %10 = load ptr, ptr %9, align 8, !tbaa !15
  %11 = getelementptr inbounds nuw i8, ptr %0, i64 8
  %12 = load ptr, ptr %11, align 8, !tbaa !16
  %13 = getelementptr inbounds nuw i8, ptr %12, i64 65
  %14 = getelementptr inbounds nuw i8, ptr %12, i64 64
  %15 = load i8, ptr %14, align 8, !tbaa !17
  %16 = icmp sgt i8 %15, 0
  %17 = icmp ult ptr %6, %10
  %or.cond = select i1 %16, i1 %17, i1 false
  br i1 %or.cond, label %18, label %23

18:                                               ; preds = %2
  %19 = zext nneg i8 %15 to i32
  store i8 0, ptr %14, align 8, !tbaa !17
  %20 = getelementptr inbounds nuw i8, ptr %12, i64 72
  %21 = load i32, ptr %20, align 8, !tbaa !22
  %22 = add i32 %21, -1
  store i32 0, ptr %20, align 8, !tbaa !22
  br label %27

23:                                               ; preds = %61, %49, %2
  %.161 = phi ptr [ %51, %49 ], [ %62, %61 ], [ %6, %2 ]
  %.159 = phi ptr [ %.2.lcssa, %49 ], [ %.2.lcssa, %61 ], [ %4, %2 ]
  %24 = icmp ult ptr %.159, %8
  %25 = icmp ult ptr %.161, %10
  %26 = select i1 %24, i1 %25, i1 false
  br i1 %26, label %27, label %71

27:                                               ; preds = %23, %18
  %.060 = phi ptr [ %6, %18 ], [ %.161, %23 ]
  %.058 = phi ptr [ %4, %18 ], [ %.159, %23 ]
  %.056 = phi i32 [ %22, %18 ], [ 0, %23 ]
  %.0 = phi i32 [ %19, %18 ], [ 0, %23 ]
  %28 = icmp samesign ult i32 %.0, 4
  br i1 %28, label %.lr.ph.preheader, label %._crit_edge

.lr.ph.preheader:                                 ; preds = %27
  %29 = zext nneg i32 %.0 to i64
  br label %.lr.ph

.lr.ph:                                           ; preds = %.lr.ph.preheader, %31
  %indvars.iv = phi i64 [ %29, %.lr.ph.preheader ], [ %indvars.iv.next, %31 ]
  %.15777 = phi i32 [ %.056, %.lr.ph.preheader ], [ %35, %31 ]
  %.276 = phi ptr [ %.058, %.lr.ph.preheader ], [ %36, %31 ]
  %30 = icmp ult ptr %.276, %8
  br i1 %30, label %31, label %38

31:                                               ; preds = %.lr.ph
  %32 = shl i32 %.15777, 8
  %33 = load i8, ptr %.276, align 1, !tbaa !23
  %34 = zext i8 %33 to i32
  %35 = or disjoint i32 %32, %34
  %36 = getelementptr inbounds nuw i8, ptr %.276, i64 1
  %indvars.iv.next = add nuw nsw i64 %indvars.iv, 1
  %37 = getelementptr inbounds nuw i8, ptr %13, i64 %indvars.iv
  store i8 %33, ptr %37, align 1, !tbaa !23
  %exitcond.not = icmp eq i64 %indvars.iv.next, 4
  br i1 %exitcond.not, label %._crit_edge, label %.lr.ph, !llvm.loop !24

38:                                               ; preds = %.lr.ph
  %39 = add i32 %.15777, 1
  %40 = load ptr, ptr %11, align 8, !tbaa !16
  %41 = getelementptr inbounds nuw i8, ptr %40, i64 72
  store i32 %39, ptr %41, align 8, !tbaa !22
  %42 = trunc i64 %indvars.iv to i8
  %43 = getelementptr inbounds nuw i8, ptr %40, i64 64
  store i8 %42, ptr %43, align 8, !tbaa !17
  br label %71

._crit_edge:                                      ; preds = %31, %27
  %.2.lcssa = phi ptr [ %.058, %27 ], [ %36, %31 ]
  %.157.lcssa = phi i32 [ %.056, %27 ], [ %35, %31 ]
  %.1.lcssa = phi i32 [ %.0, %27 ], [ 4, %31 ]
  %44 = icmp ugt i32 %.157.lcssa, 1114111
  %45 = and i32 %.157.lcssa, 2095104
  %46 = icmp eq i32 %45, 55296
  %or.cond71 = or i1 %44, %46
  br i1 %or.cond71, label %67, label %47

47:                                               ; preds = %._crit_edge
  %48 = icmp samesign ult i32 %.157.lcssa, 65536
  br i1 %48, label %49, label %52

49:                                               ; preds = %47
  %50 = trunc nuw i32 %.157.lcssa to i16
  %51 = getelementptr inbounds nuw i8, ptr %.060, i64 2
  store i16 %50, ptr %.060, align 2, !tbaa !26
  br label %23, !llvm.loop !28

52:                                               ; preds = %47
  %53 = lshr i32 %.157.lcssa, 10
  %54 = trunc nuw i32 %53 to i16
  %55 = add nuw nsw i16 %54, -10304
  %56 = getelementptr inbounds nuw i8, ptr %.060, i64 2
  store i16 %55, ptr %.060, align 2, !tbaa !26
  %57 = trunc i32 %.157.lcssa to i16
  %58 = and i16 %57, 1023
  %59 = or disjoint i16 %58, -9216
  %60 = icmp ult ptr %56, %10
  br i1 %60, label %61, label %63

61:                                               ; preds = %52
  %62 = getelementptr inbounds nuw i8, ptr %.060, i64 4
  store i16 %59, ptr %56, align 2, !tbaa !26
  br label %23, !llvm.loop !28

63:                                               ; preds = %52
  %64 = load ptr, ptr %11, align 8, !tbaa !16
  %65 = getelementptr inbounds nuw i8, ptr %64, i64 144
  store i16 %59, ptr %65, align 8, !tbaa !26
  %66 = getelementptr inbounds nuw i8, ptr %64, i64 93
  store i8 1, ptr %66, align 1, !tbaa !29
  store i32 15, ptr %1, align 4, !tbaa !30
  br label %71

67:                                               ; preds = %._crit_edge
  %68 = trunc nuw nsw i32 %.1.lcssa to i8
  %69 = load ptr, ptr %11, align 8, !tbaa !16
  %70 = getelementptr inbounds nuw i8, ptr %69, i64 64
  store i8 %68, ptr %70, align 8, !tbaa !17
  store i32 12, ptr %1, align 4, !tbaa !30
  br label %71

71:                                               ; preds = %23, %63, %67, %38
  %.262 = phi ptr [ %.060, %38 ], [ %.060, %67 ], [ %.161, %23 ], [ %56, %63 ]
  %.3 = phi ptr [ %.276, %38 ], [ %.2.lcssa, %67 ], [ %.159, %23 ], [ %.2.lcssa, %63 ]
  %72 = icmp uge ptr %.3, %8
  %.not = icmp ult ptr %.262, %10
  %or.cond72 = select i1 %72, i1 true, i1 %.not
  br i1 %or.cond72, label %77, label %73

73:                                               ; preds = %71
  %74 = load i32, ptr %1, align 4, !tbaa !30
  %75 = icmp sgt i32 %74, 0
  br i1 %75, label %77, label %76

76:                                               ; preds = %73
  store i32 15, ptr %1, align 4, !tbaa !30
  br label %77

77:                                               ; preds = %76, %73, %71
  store ptr %.262, ptr %5, align 8, !tbaa !13
  store ptr %.3, ptr %3, align 8, !tbaa !3
  ret void
}